target datalayout = "e-m:e-p270:32:32-p271:32:32-p272:64:64-i64:64-i128:128-f80:128-n8:16:32:64-S128"
target triple = "x86_64-pc-linux-gnu"

%struct.z_stream_s = type { ptr, i32, i64, ptr, i32, i64, ptr, ptr, ptr, ptr, ptr, i32, i64, i64 }
%struct.cli_ctx_tag = type { ptr, ptr, ptr, ptr, ptr, ptr, ptr, i64, ptr, i32, i32, ptr, i32, i32, ptr, [16 x i8], ptr, ptr, ptr, ptr, ptr, ptr, %struct.timeval, i8, i8 }
%struct.timeval = type { i64, i64 }
%struct.cl_fmap = type { ptr, ptr, ptr, i64, i64, i64, i64, i8, i8, i8, i64, i64, i64, i64, ptr, ptr, ptr, ptr, ptr, ptr, ptr, i8, [16 x i8], i8, [20 x i8], i8, [32 x i8], ptr, ptr }
%struct.cl_engine = type { i32, i32, i32, [2 x i32], i32, i32, i32, ptr, i32, i64, i32, i32, i64, i64, i32, i32, i32, i32, ptr, ptr, ptr, ptr, ptr, ptr, ptr, ptr, ptr, ptr, ptr, ptr, ptr, ptr, ptr, ptr, ptr, ptr, ptr, i64, ptr, %struct.crtmgr, ptr, ptr, ptr, ptr, ptr, ptr, ptr, ptr, ptr, ptr, ptr, ptr, ptr, ptr, ptr, ptr, ptr, %struct.cli_all_bc, [7 x ptr], [7 x i32], i32, i32, i32, i32, i64, i64, i64, i64, i64, ptr, ptr, ptr, ptr, ptr, ptr, ptr, ptr, ptr, i32, i32, i32, i64, i64, i64, ptr }
%struct.crtmgr = type { ptr, i32 }
%struct.cli_all_bc = type { ptr, i32, ptr, %struct.cli_environment, i32 }
%struct.cli_environment = type { i32, i32, i32, i32, i32, i32, i32, [65 x i8], [65 x i8], [65 x i8], [65 x i8], [65 x i8], [65 x i8], [65 x i8], i8, i8, i8, i8, i8, i8, i8, i8, i8 }

@.str.8 = private unnamed_addr constant [7 x i8] c"1.2.11\00", align 1
@.str.46 = private unnamed_addr constant [54 x i8] c"is_extract_cab: Unable to allocate memory for outbuf\0A\00", align 1
@.str.47 = private unnamed_addr constant [42 x i8] c"is_extract_cab: failed to create file %s\0A\00", align 1
@.str.48 = private unnamed_addr constant [40 x i8] c"is_extract_cab: no room for chunk size\0A\00", align 1
@.str.49 = private unnamed_addr constant [43 x i8] c"is_extract_cab: short read for chunk size\0A\00", align 1
@.str.50 = private unnamed_addr constant [34 x i8] c"is_extract_cab: zero sized chunk\0A\00", align 1
@.str.51 = private unnamed_addr constant [44 x i8] c"is_extract_cab: chunk is bigger than csize\0A\00", align 1
@.str.52 = private unnamed_addr constant [38 x i8] c"is_extract_cab: short read for chunk\0A\00", align 1
@.str.53 = private unnamed_addr constant [75 x i8] c"ishield_extract_cab: trimming output file due to size limits (%lu vs %lu)\0A\00", align 1
@.str.54 = private unnamed_addr constant [51 x i8] c"is_extract_cab: file decompression failed with %d\0A\00", align 1
@.str.55 = private unnamed_addr constant [77 x i8] c"is_extract_cab: extracted %llu bytes to %s, expected %llu, scanning anyway.\0A\00", align 1
@.str.56 = private unnamed_addr constant [33 x i8] c"is_extract_cab: extracted to %s\0A\00", align 1
@.str.57 = private unnamed_addr constant [40 x i8] c"is_extract_cab: call to lseek() failed\0A\00", align 1

; Function Attrs: nounwind uwtable
define internal ptr @fmap_need_off_once(ptr noundef %0, i64 noundef %1, i64 noundef %2) #0 {
  %4 = alloca ptr, align 8
  %5 = alloca i64, align 8
  %6 = alloca i64, align 8
  store ptr %0, ptr %4, align 8
  store i64 %1, ptr %5, align 8
  store i64 %2, ptr %6, align 8
  %7 = load ptr, ptr %4, align 8
  %8 = getelementptr inbounds %struct.cl_fmap, ptr %7, i32 0, i32 15
  %9 = load ptr, ptr %8, align 8
  %10 = load ptr, ptr %4, align 8
  %11 = load i64, ptr %5, align 8
  %12 = load i64, ptr %6, align 8
  %13 = call ptr %9(ptr noundef %10, i64 noundef %11, i64 noundef %12, i32 noundef 0)
  ret ptr %13
}

; Function Attrs: nounwind uwtable
define internal i32 @is_extract_cab(ptr noundef %0, i64 noundef %1, i64 noundef %2, i64 noundef %3) #0 {
  %5 = alloca i32, align 4
  %6 = alloca ptr, align 8
  %7 = alloca i64, align 8
  %8 = alloca i64, align 8
  %9 = alloca i64, align 8
  %10 = alloca i32, align 4
  %11 = alloca ptr, align 8
  %12 = alloca ptr, align 8
  %13 = alloca ptr, align 8
  %14 = alloca i32, align 4
  %15 = alloca %struct.z_stream_s, align 8
  %16 = alloca i64, align 8
  %17 = alloca i32, align 4
  %18 = alloca ptr, align 8
  %19 = alloca i16, align 2
  %20 = alloca i32, align 4
  %21 = alloca i32, align 4
  store ptr %0, ptr %6, align 8
  store i64 %1, ptr %7, align 8
  store i64 %2, ptr %8, align 8
  store i64 %3, ptr %9, align 8
  store i32 0, ptr %10, align 4
  store i64 0, ptr %16, align 8
  store i32 0, ptr %17, align 4
  %22 = load ptr, ptr %6, align 8
  %23 = getelementptr inbounds %struct.cli_ctx_tag, ptr %22, i32 0, i32 14
  %24 = load ptr, ptr %23, align 8
  store ptr %24, ptr %18, align 8
  %25 = call noalias ptr @malloc(i64 noundef 65536) #9
  store ptr %25, ptr %12, align 8
  %26 = icmp ne ptr %25, null
  br i1 %26, label %28, label %27

27:                                               ; preds = %4
  call void (ptr, ...) @cli_errmsg(ptr noundef @.str.46)
  store i32 20, ptr %5, align 4
  br label %226

28:                                               ; preds = %4
  %29 = load ptr, ptr %6, align 8
  %30 = getelementptr inbounds %struct.cli_ctx_tag, ptr %29, i32 0, i32 2
  %31 = load ptr, ptr %30, align 8
  %32 = call ptr @cli_gentemp(ptr noundef %31)
  store ptr %32, ptr %13, align 8
  %33 = icmp ne ptr %32, null
  br i1 %33, label %36, label %34

34:                                               ; preds = %28
  %35 = load ptr, ptr %12, align 8
  call void @free(ptr noundef %35) #8
  store i32 20, ptr %5, align 4
  br label %226

36:                                               ; preds = %28
  %37 = load ptr, ptr %13, align 8
  %38 = call i32 (ptr, i32, ...) @open(ptr noundef %37, i32 noundef 578, i32 noundef 384)
  store i32 %38, ptr %14, align 4
  %39 = icmp slt i32 %38, 0
  br i1 %39, label %40, label %44

40:                                               ; preds = %36
  %41 = load ptr, ptr %13, align 8
  call void (ptr, ...) @cli_errmsg(ptr noundef @.str.47, ptr noundef %41)
  %42 = load ptr, ptr %13, align 8
  call void @free(ptr noundef %42) #8
  %43 = load ptr, ptr %12, align 8
  call void @free(ptr noundef %43) #8
  store i32 9, ptr %5, align 4
  br label %226

44:                                               ; preds = %36
  br label %45

45:                                               ; preds = %177, %76, %44
  %46 = load i64, ptr %9, align 8
  %47 = icmp ne i64 %46, 0
  br i1 %47, label %48, label %178

48:                                               ; preds = %45
  store i32 0, ptr %17, align 4
  %49 = load i64, ptr %9, align 8
  %50 = icmp ult i64 %49, 2
  br i1 %50, label %51, label %52

51:                                               ; preds = %48
  call void (ptr, ...) @cli_dbgmsg(ptr noundef @.str.48)
  br label %178

52:                                               ; preds = %48
  %53 = load i64, ptr %9, align 8
  %54 = sub i64 %53, 2
  store i64 %54, ptr %9, align 8
  %55 = load ptr, ptr %18, align 8
  %56 = load i64, ptr %7, align 8
  %57 = call ptr @fmap_need_off_once(ptr noundef %55, i64 noundef %56, i64 noundef 2)
  store ptr %57, ptr %11, align 8
  %58 = icmp ne ptr %57, null
  br i1 %58, label %60, label %59

59:                                               ; preds = %52
  call void (ptr, ...) @cli_dbgmsg(ptr noundef @.str.49)
  br label %178

60:                                               ; preds = %52
  %61 = load i64, ptr %7, align 8
  %62 = add i64 %61, 2
  store i64 %62, ptr %7, align 8
  %63 = load ptr, ptr %11, align 8
  %64 = getelementptr inbounds i8, ptr %63, i64 0
  %65 = load i8, ptr %64, align 1
  %66 = zext i8 %65 to i32
  %67 = load ptr, ptr %11, align 8
  %68 = getelementptr inbounds i8, ptr %67, i64 1
  %69 = load i8, ptr %68, align 1
  %70 = zext i8 %69 to i32
  %71 = shl i32 %70, 8
  %72 = or i32 %66, %71
  %73 = trunc i32 %72 to i16
  store i16 %73, ptr %19, align 2
  %74 = load i16, ptr %19, align 2
  %75 = icmp ne i16 %74, 0
  br i1 %75, label %77, label %76

76:                                               ; preds = %60
  call void (ptr, ...) @cli_dbgmsg(ptr noundef @.str.50)
  br label %45

77:                                               ; preds = %60
  %78 = load i64, ptr %9, align 8
  %79 = load i16, ptr %19, align 2
  %80 = zext i16 %79 to i64
  %81 = icmp ult i64 %78, %80
  br i1 %81, label %82, label %83

82:                                               ; preds = %77
  call void (ptr, ...) @cli_dbgmsg(ptr noundef @.str.51)
  br label %178

83:                                               ; preds = %77
  %84 = load i16, ptr %19, align 2
  %85 = zext i16 %84 to i64
  %86 = load i64, ptr %9, align 8
  %87 = sub i64 %86, %85
  store i64 %87, ptr %9, align 8
  %88 = load ptr, ptr %18, align 8
  %89 = load i64, ptr %7, align 8
  %90 = load i16, ptr %19, align 2
  %91 = zext i16 %90 to i64
  %92 = call ptr @fmap_need_off_once(ptr noundef %88, i64 noundef %89, i64 noundef %91)
  store ptr %92, ptr %11, align 8
  %93 = icmp ne ptr %92, null
  br i1 %93, label %95, label %94

94:                                               ; preds = %83
  call void (ptr, ...) @cli_dbgmsg(ptr noundef @.str.52)
  br label %178

95:                                               ; preds = %83
  %96 = load i16, ptr %19, align 2
  %97 = zext i16 %96 to i64
  %98 = load i64, ptr %7, align 8
  %99 = add i64 %98, %97
  store i64 %99, ptr %7, align 8
  call void @llvm.memset.p0.i64(ptr align 8 %15, i8 0, i64 112, i1 false)
  %100 = call i32 @inflateInit2_(ptr noundef %15, i32 noundef -15, ptr noundef @.str.8, i32 noundef 112)
  %101 = load ptr, ptr %11, align 8
  %102 = getelementptr inbounds %struct.z_stream_s, ptr %15, i32 0, i32 0
  store ptr %101, ptr %102, align 8
  %103 = load i16, ptr %19, align 2
  %104 = zext i16 %103 to i32
  %105 = getelementptr inbounds %struct.z_stream_s, ptr %15, i32 0, i32 1
  store i32 %104, ptr %105, align 8
  br label %106

106:                                              ; preds = %169, %95
  %107 = load ptr, ptr %12, align 8
  %108 = getelementptr inbounds %struct.z_stream_s, ptr %15, i32 0, i32 3
  store ptr %107, ptr %108, align 8
  %109 = getelementptr inbounds %struct.z_stream_s, ptr %15, i32 0, i32 4
  store i32 65536, ptr %109, align 8
  %110 = call i32 @inflate(ptr noundef %15, i32 noundef 0)
  store i32 %110, ptr %20, align 4
  %111 = load i32, ptr %20, align 4
  %112 = icmp eq i32 %111, 0
  br i1 %112, label %119, label %113

113:                                              ; preds = %106
  %114 = load i32, ptr %20, align 4
  %115 = icmp eq i32 %114, 1
  br i1 %115, label %119, label %116

116:                                              ; preds = %113
  %117 = load i32, ptr %20, align 4
  %118 = icmp eq i32 %117, -5
  br i1 %118, label %119, label %170

119:                                              ; preds = %116, %113, %106
  %120 = getelementptr inbounds %struct.z_stream_s, ptr %15, i32 0, i32 4
  %121 = load i32, ptr %120, align 8
  %122 = sub i32 65536, %121
  store i32 %122, ptr %21, align 4
  %123 = load i32, ptr %14, align 4
  %124 = load ptr, ptr %12, align 8
  %125 = load i32, ptr %21, align 4
  %126 = zext i32 %125 to i64
  %127 = call i64 @cli_writen(i32 noundef %123, ptr noundef %124, i64 noundef %126)
  %128 = load i32, ptr %21, align 4
  %129 = zext i32 %128 to i64
  %130 = icmp ne i64 %127, %129
  br i1 %130, label %131, label %132

131:                                              ; preds = %119
  br label %172

132:                                              ; preds = %119
  %133 = load i32, ptr %21, align 4
  %134 = zext i32 %133 to i64
  %135 = load i64, ptr %16, align 8
  %136 = add i64 %135, %134
  store i64 %136, ptr %16, align 8
  %137 = load i32, ptr %20, align 4
  %138 = icmp eq i32 %137, 1
  br i1 %138, label %143, label %139

139:                                              ; preds = %132
  %140 = getelementptr inbounds %struct.z_stream_s, ptr %15, i32 0, i32 4
  %141 = load i32, ptr %140, align 8
  %142 = icmp eq i32 %141, 65536
  br i1 %142, label %143, label %144

143:                                              ; preds = %139, %132
  store i32 1, ptr %17, align 4
  br label %172

144:                                              ; preds = %139
  %145 = load ptr, ptr %6, align 8
  %146 = getelementptr inbounds %struct.cli_ctx_tag, ptr %145, i32 0, i32 6
  %147 = load ptr, ptr %146, align 8
  %148 = getelementptr inbounds %struct.cl_engine, ptr %147, i32 0, i32 13
  %149 = load i64, ptr %148, align 8
  %150 = icmp ne i64 %149, 0
  br i1 %150, label %151, label %169

151:                                              ; preds = %144
  %152 = getelementptr inbounds %struct.z_stream_s, ptr %15, i32 0, i32 5
  %153 = load i64, ptr %152, align 8
  %154 = load ptr, ptr %6, align 8
  %155 = getelementptr inbounds %struct.cli_ctx_tag, ptr %154, i32 0, i32 6
  %156 = load ptr, ptr %155, align 8
  %157 = getelementptr inbounds %struct.cl_engine, ptr %156, i32 0, i32 13
  %158 = load i64, ptr %157, align 8
  %159 = icmp ugt i64 %153, %158
  br i1 %159, label %160, label %169

160:                                              ; preds = %151
  %161 = getelementptr inbounds %struct.z_stream_s, ptr %15, i32 0, i32 5
  %162 = load i64, ptr %161, align 8
  %163 = load ptr, ptr %6, align 8
  %164 = getelementptr inbounds %struct.cli_ctx_tag, ptr %163, i32 0, i32 6
  %165 = load ptr, ptr %164, align 8
  %166 = getelementptr inbounds %struct.cl_engine, ptr %165, i32 0, i32 13
  %167 = load i64, ptr %166, align 8
  call void (ptr, ...) @cli_dbgmsg(ptr noundef @.str.53, i64 noundef %162, i64 noundef %167)
  store i32 1, ptr %17, align 4
  %168 = load i64, ptr %8, align 8
  store i64 %168, ptr %16, align 8
  br label %172

169:                                              ; preds = %151, %144
  br label %106

170:                                              ; preds = %116
  %171 = load i32, ptr %20, align 4
  call void (ptr, ...) @cli_dbgmsg(ptr noundef @.str.54, i32 noundef %171)
  br label %172

172:                                              ; preds = %170, %160, %143, %131
  %173 = call i32 @inflateEnd(ptr noundef %15)
  %174 = load i32, ptr %17, align 4
  %175 = icmp ne i32 %174, 0
  br i1 %175, label %177, label %176

176:                                              ; preds = %172
  br label %178

177:                                              ; preds = %172
  br label %45

178:                                              ; preds = %176, %94, %82, %59, %51, %45
  %179 = load ptr, ptr %12, align 8
  call void @free(ptr noundef %179) #8
  %180 = load i32, ptr %17, align 4
  %181 = icmp ne i32 %180, 0
  br i1 %181, label %182, label %202

182:                                              ; preds = %178
  %183 = load i64, ptr %16, align 8
  %184 = load i64, ptr %8, align 8
  %185 = icmp ne i64 %183, %184
  br i1 %185, label %186, label %190

186:                                              ; preds = %182
  %187 = load i64, ptr %16, align 8
  %188 = load ptr, ptr %13, align 8
  %189 = load i64, ptr %8, align 8
  call void (ptr, ...) @cli_dbgmsg(ptr noundef @.str.55, i64 noundef %187, ptr noundef %188, i64 noundef %189)
  br label %192

190:                                              ; preds = %182
  %191 = load ptr, ptr %13, align 8
  call void (ptr, ...) @cli_dbgmsg(ptr noundef @.str.56, ptr noundef %191)
  br label %192

192:                                              ; preds = %190, %186
  %193 = load i32, ptr %14, align 4
  %194 = call i64 @lseek(i32 noundef %193, i64 noundef 0, i32 noundef 0) #8
  %195 = icmp eq i64 %194, -1
  br i1 %195, label %196, label %197

196:                                              ; preds = %192
  call void (ptr, ...) @cli_dbgmsg(ptr noundef @.str.57)
  br label %197

197:                                              ; preds = %196, %192
  %198 = load i32, ptr %14, align 4
  %199 = load ptr, ptr %13, align 8
  %200 = load ptr, ptr %6, align 8
  %201 = call i32 @cli_magic_scan_desc(i32 noundef %198, ptr noundef %199, ptr noundef %200, ptr noundef null, i32 noundef 0)
  store i32 %201, ptr %10, align 4
  br label %202

202:                                              ; preds = %197, %178
  %203 = load i32, ptr %14, align 4
  %204 = call i32 @close(i32 noundef %203)
  %205 = load ptr, ptr %6, align 8
  %206 = getelementptr inbounds %struct.cli_ctx_tag, ptr %205, i32 0, i32 6
  %207 = load ptr, ptr %206, align 8
  %208 = getelementptr inbounds %struct.cl_engine, ptr %207, i32 0, i32 8
  %209 = load i32, ptr %208, align 8
  %210 = icmp ne i32 %209, 0
  br i1 %210, label %217, label %211

211:                                              ; preds = %202
  %212 = load ptr, ptr %13, align 8
  %213 = call i32 @cli_unlink(ptr noundef %212)
  %214 = icmp ne i32 %213, 0
  br i1 %214, label %215, label %216

215:                                              ; preds = %211
  store i32 10, ptr %10, align 4
  br label %216

216:                                              ; preds = %215, %211
  br label %217

217:                                              ; preds = %216, %202
  %218 = load ptr, ptr %13, align 8
  call void @free(ptr noundef %218) #8
  %219 = load i32, ptr %17, align 4
  %220 = icmp ne i32 %219, 0
  br i1 %220, label %221, label %223

221:                                              ; preds = %217
  %222 = load i32, ptr %10, align 4
  br label %224

223:                                              ; preds = %217
  br label %224

224:                                              ; preds = %223, %221
  %225 = phi i32 [ %222, %221 ], [ 22, %223 ]
  store i32 %225, ptr %5, align 4
  br label %226

226:                                              ; preds = %224, %40, %34, %27
  %227 = load i32, ptr %5, align 4
  ret i32 %227
}