; Function Attrs: nounwind uwtable
define internal fastcc i32 @is_extract_cab(ptr noundef %0, i64 noundef %1, i64 noundef %2, i64 noundef %3) unnamed_addr #0 {
  %5 = alloca %struct.z_stream_s, align 8
  %6 = getelementptr inbounds i8, ptr %0, i64 96
  %7 = load ptr, ptr %6, align 8
  %8 = tail call noalias dereferenceable_or_null(65536) ptr @malloc(i64 noundef 65536) #15
  %.not = icmp eq ptr %8, null
  br i1 %.not, label %9, label %10

9:                                                ; preds = %4
  tail call void (ptr, ...) @cli_errmsg(ptr noundef nonnull @.str.46) #13
  br label %96

10:                                               ; preds = %4
  %11 = getelementptr inbounds i8, ptr %0, i64 16
  %12 = load ptr, ptr %11, align 8
  %13 = tail call ptr @cli_gentemp(ptr noundef %12) #13
  %.not94 = icmp eq ptr %13, null
  br i1 %.not94, label %14, label %15

14:                                               ; preds = %10
  tail call void @free(ptr noundef nonnull %8) #13
  br label %96

15:                                               ; preds = %10
  %16 = tail call i32 (ptr, i32, ...) @open(ptr noundef nonnull %13, i32 noundef 578, i32 noundef 384) #13
  %17 = icmp slt i32 %16, 0
  br i1 %17, label %24, label %.preheader114

.preheader114:                                    ; preds = %15
  %.old7.not142 = icmp eq i64 %3, 0
  br i1 %.old7.not142, label %.thread108, label %.preheader.lr.ph

.preheader.lr.ph:                                 ; preds = %.preheader114
  %18 = getelementptr inbounds i8, ptr %7, i64 104
  %19 = getelementptr inbounds i8, ptr %5, i64 8
  %20 = getelementptr inbounds i8, ptr %5, i64 24
  %21 = getelementptr inbounds i8, ptr %5, i64 32
  %22 = getelementptr inbounds i8, ptr %0, i64 48
  %23 = getelementptr inbounds i8, ptr %5, i64 40
  br label %.preheader.outer

24:                                               ; preds = %15
  tail call void (ptr, ...) @cli_errmsg(ptr noundef nonnull @.str.47, ptr noundef nonnull %13) #13
  tail call void @free(ptr noundef nonnull %13) #13
  tail call void @free(ptr noundef nonnull %8) #13
  br label %96

.preheader:                                       ; preds = %.preheader.outer, %41
  %.173 = phi i64 [ %28, %41 ], [ %.173.ph, %.preheader.outer ]
  %.1 = phi i64 [ %33, %41 ], [ %.1.ph, %.preheader.outer ]
  %25 = icmp ult i64 %.173, 2
  br i1 %25, label %26, label %27

26:                                               ; preds = %.preheader
  call void (ptr, ...) @cli_dbgmsg(ptr noundef nonnull @.str.48) #13
  br label %.thread108

27:                                               ; preds = %.preheader
  %28 = add i64 %.173, -2
  %29 = load ptr, ptr %18, align 8
  %30 = call ptr %29(ptr noundef %7, i64 noundef %.1, i64 noundef 2, i32 noundef 0) #13
  %.not95 = icmp eq ptr %30, null
  br i1 %.not95, label %31, label %32

31:                                               ; preds = %27
  call void (ptr, ...) @cli_dbgmsg(ptr noundef nonnull @.str.49) #13
  br label %.thread108

32:                                               ; preds = %27
  %33 = add i64 %.1, 2
  %34 = load i8, ptr %30, align 1
  %35 = zext i8 %34 to i16
  %36 = getelementptr inbounds i8, ptr %30, i64 1
  %37 = load i8, ptr %36, align 1
  %38 = zext i8 %37 to i16
  %39 = shl nuw i16 %38, 8
  %40 = or disjoint i16 %39, %35
  %.not96 = icmp eq i16 %40, 0
  br i1 %.not96, label %41, label %42

41:                                               ; preds = %32
  call void (ptr, ...) @cli_dbgmsg(ptr noundef nonnull @.str.50) #13
  %.old7.not = icmp eq i64 %28, 0
  br i1 %.old7.not, label %.thread108, label %.preheader

42:                                               ; preds = %32
  %43 = zext i16 %40 to i64
  %44 = icmp ult i64 %28, %43
  br i1 %44, label %45, label %46

45:                                               ; preds = %42
  call void (ptr, ...) @cli_dbgmsg(ptr noundef nonnull @.str.51) #13
  br label %.thread108

46:                                               ; preds = %42
  %47 = sub i64 %28, %43
  %48 = load ptr, ptr %18, align 8
  %49 = call ptr %48(ptr noundef nonnull %7, i64 noundef %33, i64 noundef %43, i32 noundef 0) #13
  %.not97 = icmp eq ptr %49, null
  br i1 %.not97, label %50, label %51

50:                                               ; preds = %46
  call void (ptr, ...) @cli_dbgmsg(ptr noundef nonnull @.str.52) #13
  br label %.thread108

51:                                               ; preds = %46
  %52 = add i64 %33, %43
  call void @llvm.memset.p0.i64(ptr noundef nonnull align 8 dereferenceable(112) %5, i8 0, i64 112, i1 false)
  %53 = call i32 @inflateInit2_(ptr noundef nonnull %5, i32 noundef -15, ptr noundef nonnull @.str.8, i32 noundef 112) #13
  store ptr %49, ptr %5, align 8
  %54 = zext i16 %40 to i32
  store i32 %54, ptr %19, align 8
  br label %55

55:                                               ; preds = %67, %51
  %.280 = phi i64 [ %.179.ph, %51 ], [ %64, %67 ]
  store ptr %8, ptr %20, align 8
  store i32 65536, ptr %21, align 8
  %56 = call i32 @inflate(ptr noundef nonnull %5, i32 noundef 0) #13
  %57 = icmp eq i32 %56, 1
  switch i32 %56, label %74 [
    i32 -5, label %58
    i32 1, label %58
    i32 0, label %58
  ]

58:                                               ; preds = %55, %55, %55
  %59 = load i32, ptr %21, align 8
  %60 = sub i32 65536, %59
  %61 = zext i32 %60 to i64
  %62 = call i64 @cli_writen(i32 noundef %16, ptr noundef nonnull %8, i64 noundef %61) #13
  %.not98 = icmp eq i64 %62, %61
  br i1 %.not98, label %63, label %.thread

63:                                               ; preds = %58
  %64 = add i64 %.280, %61
  %65 = load i32, ptr %21, align 8
  %66 = icmp eq i32 %65, 65536
  %or.cond6 = select i1 %57, i1 true, i1 %66
  br i1 %or.cond6, label %.loopexit, label %67

67:                                               ; preds = %63
  %68 = load ptr, ptr %22, align 8
  %69 = getelementptr inbounds i8, ptr %68, i64 72
  %70 = load i64, ptr %69, align 8
  %.not99 = icmp ne i64 %70, 0
  %71 = load i64, ptr %23, align 8
  %72 = icmp ugt i64 %71, %70
  %or.cond = select i1 %.not99, i1 %72, i1 false
  br i1 %or.cond, label %73, label %55

73:                                               ; preds = %67
  call void (ptr, ...) @cli_dbgmsg(ptr noundef nonnull @.str.53, i64 noundef %71, i64 noundef %70) #13
  br label %.loopexit

74:                                               ; preds = %55
  call void (ptr, ...) @cli_dbgmsg(ptr noundef nonnull @.str.54, i32 noundef %56) #13
  br label %.thread

.thread:                                          ; preds = %58, %74
  %75 = call i32 @inflateEnd(ptr noundef nonnull %5) #13
  br label %.thread108

.loopexit:                                        ; preds = %63, %73
  %.3 = phi i64 [ %2, %73 ], [ %64, %63 ]
  %76 = call i32 @inflateEnd(ptr noundef nonnull %5) #13
  %.not113 = icmp eq i64 %47, 0
  br i1 %.not113, label %77, label %.preheader.outer

.preheader.outer:                                 ; preds = %.preheader.lr.ph, %.loopexit
  %.179.ph = phi i64 [ 0, %.preheader.lr.ph ], [ %.3, %.loopexit ]
  %.173.ph = phi i64 [ %3, %.preheader.lr.ph ], [ %47, %.loopexit ]
  %.1.ph = phi i64 [ %1, %.preheader.lr.ph ], [ %52, %.loopexit ]
  br label %.preheader

.thread108:                                       ; preds = %41, %.preheader114, %26, %45, %50, %31, %.thread
  call void @free(ptr noundef %8) #13
  br label %86

77:                                               ; preds = %.loopexit
  call void @free(ptr noundef %8) #13
  %.not101 = icmp eq i64 %.3, %2
  br i1 %.not101, label %79, label %78

78:                                               ; preds = %77
  call void (ptr, ...) @cli_dbgmsg(ptr noundef nonnull @.str.55, i64 noundef %.3, ptr noundef nonnull %13, i64 noundef %2) #13
  br label %80

79:                                               ; preds = %77
  call void (ptr, ...) @cli_dbgmsg(ptr noundef nonnull @.str.56, ptr noundef nonnull %13) #13
  br label %80

80:                                               ; preds = %79, %78
  %81 = call i64 @lseek(i32 noundef %16, i64 noundef 0, i32 noundef 0) #13
  %82 = icmp eq i64 %81, -1
  br i1 %82, label %83, label %84

83:                                               ; preds = %80
  call void (ptr, ...) @cli_dbgmsg(ptr noundef nonnull @.str.57) #13
  br label %84

84:                                               ; preds = %83, %80
  %85 = call i32 @cli_magic_scan_desc(i32 noundef %16, ptr noundef nonnull %13, ptr noundef %0, ptr noundef null, i32 noundef 0) #13
  br label %86

86:                                               ; preds = %.thread108, %84
  %.not100112 = phi i1 [ false, %84 ], [ true, %.thread108 ]
  %.074 = phi i32 [ %85, %84 ], [ 0, %.thread108 ]
  %87 = call i32 @close(i32 noundef %16) #13
  %88 = getelementptr inbounds i8, ptr %0, i64 48
  %89 = load ptr, ptr %88, align 8
  %90 = getelementptr inbounds i8, ptr %89, i64 40
  %91 = load i32, ptr %90, align 8
  %.not102 = icmp eq i32 %91, 0
  br i1 %.not102, label %92, label %94

92:                                               ; preds = %86
  %93 = call i32 @cli_unlink(ptr noundef nonnull %13) #13
  %.not103 = icmp eq i32 %93, 0
  %spec.select = select i1 %.not103, i32 %.074, i32 10
  br label %94

94:                                               ; preds = %92, %86
  %.175 = phi i32 [ %.074, %86 ], [ %spec.select, %92 ]
  call void @free(ptr noundef %13) #13
  %95 = select i1 %.not100112, i32 22, i32 %.175
  br label %96

96:                                               ; preds = %94, %24, %14, %9
  %.0 = phi i32 [ 9, %24 ], [ %95, %94 ], [ 20, %14 ], [ 20, %9 ]
  ret i32 %.0
}